target datalayout = "e-m:e-p270:32:32-p271:32:32-p272:64:64-i64:64-i128:128-f80:128-n8:16:32:64-S128"
target triple = "x86_64-pc-linux-gnu"

%"class.absl::Span" = type { ptr, i64 }
%"class.absl::str_format_internal::UntypedFormatSpecImpl" = type { ptr, i64 }
%"class.absl::str_format_internal::FormatRawSinkImpl" = type { ptr, ptr }
%"class.absl::str_format_internal::Streamable" = type { ptr, %"class.absl::InlinedVector" }
%"class.absl::InlinedVector" = type { %"class.absl::inlined_vector_internal::Storage" }
%"class.absl::inlined_vector_internal::Storage" = type { %"class.absl::container_internal::CompressedTuple", %"union.absl::inlined_vector_internal::Storage<absl::str_format_internal::FormatArgImpl, 4, std::allocator<absl::str_format_internal::FormatArgImpl>>::Data" }
%"class.absl::container_internal::CompressedTuple" = type { %"struct.absl::container_internal::internal_compressed_tuple::CompressedTupleImpl" }
%"struct.absl::container_internal::internal_compressed_tuple::CompressedTupleImpl" = type { %"struct.absl::container_internal::internal_compressed_tuple::Storage.3" }
%"struct.absl::container_internal::internal_compressed_tuple::Storage.3" = type { i64 }
%"union.absl::inlined_vector_internal::Storage<absl::str_format_internal::FormatArgImpl, 4, std::allocator<absl::str_format_internal::FormatArgImpl>>::Data" = type { %"struct.absl::inlined_vector_internal::Storage<absl::str_format_internal::FormatArgImpl, 4, std::allocator<absl::str_format_internal::FormatArgImpl>>::Allocated", [48 x i8] }
%"struct.absl::inlined_vector_internal::Storage<absl::str_format_internal::FormatArgImpl, 4, std::allocator<absl::str_format_internal::FormatArgImpl>>::Allocated" = type { ptr, i64 }
%"struct.absl::inlined_vector_internal::Storage<absl::str_format_internal::FormatArgImpl, 4, std::allocator<absl::str_format_internal::FormatArgImpl>>::Inlined" = type { [64 x i8] }
%"class.std::ios_base" = type { ptr, i64, i64, i32, i32, i32, ptr, %"struct.std::ios_base::_Words", [8 x %"struct.std::ios_base::_Words"], i32, ptr, %"class.std::locale" }
%"struct.std::ios_base::_Words" = type { ptr, i64 }
%"class.std::locale" = type { ptr }

; Function Attrs: mustprogress nounwind uwtable
define linkonce_odr dso_local noundef nonnull align 8 dereferenceable(8) ptr @_ZNKR4absl18container_internal25internal_compressed_tuple7StorageImLm1ELb0EE3getEv(ptr noundef nonnull align 8 dereferenceable(8) %0) #3 comdat align 2 {
  %2 = alloca ptr, align 8
  store ptr %0, ptr %2, align 8, !tbaa !138
  %3 = load ptr, ptr %2, align 8
  %4 = getelementptr inbounds nuw %"struct.absl::container_internal::internal_compressed_tuple::Storage.3", ptr %3, i32 0, i32 0
  ret ptr %4
}

; Function Attrs: mustprogress uwtable
define linkonce_odr dso_local noundef nonnull align 8 dereferenceable(8) ptr @_ZNKR4absl18container_internal15CompressedTupleIJSaINS_19str_format_internal13FormatArgImplEEmEE3getILi1EEERKNS0_25internal_compressed_tuple4ElemIS5_XT_EE4typeEv(ptr noundef nonnull align 8 dereferenceable(8) %0) #0 comdat align 2 {
  %2 = alloca ptr, align 8
  store ptr %0, ptr %2, align 8, !tbaa !136
  %3 = load ptr, ptr %2, align 8
  %4 = call noundef nonnull align 8 dereferenceable(8) ptr @_ZNKR4absl18container_internal25internal_compressed_tuple7StorageImLm1ELb0EE3getEv(ptr noundef nonnull align 8 dereferenceable(8) %3)
  ret ptr %4
}

; Function Attrs: mustprogress nounwind uwtable
define linkonce_odr dso_local noundef ptr @_ZNK4absl23inlined_vector_internal7StorageINS_19str_format_internal13FormatArgImplELm4ESaIS3_EE14GetInlinedDataEv(ptr noundef nonnull align 8 dereferenceable(72) %0) #3 comdat align 2 {
  %2 = alloca ptr, align 8
  store ptr %0, ptr %2, align 8, !tbaa !134
  %3 = load ptr, ptr %2, align 8
  %4 = getelementptr inbounds nuw %"class.absl::inlined_vector_internal::Storage", ptr %3, i32 0, i32 1
  %5 = getelementptr inbounds nuw %"struct.absl::inlined_vector_internal::Storage<absl::str_format_internal::FormatArgImpl, 4, std::allocator<absl::str_format_internal::FormatArgImpl>>::Inlined", ptr %4, i32 0, i32 0
  %6 = getelementptr inbounds [64 x i8], ptr %5, i64 0, i64 0
  ret ptr %6
}

; Function Attrs: mustprogress nounwind uwtable
define linkonce_odr dso_local noundef ptr @_ZNK4absl23inlined_vector_internal7StorageINS_19str_format_internal13FormatArgImplELm4ESaIS3_EE16GetAllocatedDataEv(ptr noundef nonnull align 8 dereferenceable(72) %0) #3 comdat align 2 {
  %2 = alloca ptr, align 8
  store ptr %0, ptr %2, align 8, !tbaa !134
  %3 = load ptr, ptr %2, align 8
  %4 = getelementptr inbounds nuw %"class.absl::inlined_vector_internal::Storage", ptr %3, i32 0, i32 1
  %5 = getelementptr inbounds nuw %"struct.absl::inlined_vector_internal::Storage<absl::str_format_internal::FormatArgImpl, 4, std::allocator<absl::str_format_internal::FormatArgImpl>>::Allocated", ptr %4, i32 0, i32 0
  %6 = load ptr, ptr %5, align 8, !tbaa !57
  ret ptr %6
}

; Function Attrs: mustprogress uwtable
define linkonce_odr dso_local noundef zeroext i1 @_ZNK4absl23inlined_vector_internal7StorageINS_19str_format_internal13FormatArgImplELm4ESaIS3_EE14GetIsAllocatedEv(ptr noundef nonnull align 8 dereferenceable(72) %0) #0 comdat align 2 {
  %2 = alloca ptr, align 8
  store ptr %0, ptr %2, align 8, !tbaa !134
  %3 = load ptr, ptr %2, align 8
  %4 = call noundef nonnull align 8 dereferenceable(8) ptr @_ZNK4absl23inlined_vector_internal7StorageINS_19str_format_internal13FormatArgImplELm4ESaIS3_EE21GetSizeAndIsAllocatedEv(ptr noundef nonnull align 8 dereferenceable(72) %3)
  %5 = load i64, ptr %4, align 8, !tbaa !14
  %6 = and i64 %5, 1
  %7 = icmp ne i64 %6, 0
  ret i1 %7
}

; Function Attrs: mustprogress uwtable
define linkonce_odr dso_local noundef nonnull align 8 dereferenceable(8) ptr @_ZNK4absl23inlined_vector_internal7StorageINS_19str_format_internal13FormatArgImplELm4ESaIS3_EE21GetSizeAndIsAllocatedEv(ptr noundef nonnull align 8 dereferenceable(72) %0) #0 comdat align 2 {
  %2 = alloca ptr, align 8
  store ptr %0, ptr %2, align 8, !tbaa !134
  %3 = load ptr, ptr %2, align 8
  %4 = getelementptr inbounds nuw %"class.absl::inlined_vector_internal::Storage", ptr %3, i32 0, i32 0
  %5 = call noundef nonnull align 8 dereferenceable(8) ptr @_ZNKR4absl18container_internal15CompressedTupleIJSaINS_19str_format_internal13FormatArgImplEEmEE3getILi1EEERKNS0_25internal_compressed_tuple4ElemIS5_XT_EE4typeEv(ptr noundef nonnull align 8 dereferenceable(8) %4)
  ret ptr %5
}

; Function Attrs: mustprogress nounwind uwtable
define linkonce_odr dso_local noundef ptr @_ZNK4absl13InlinedVectorINS_19str_format_internal13FormatArgImplELm4ESaIS2_EE4dataEv(ptr noundef nonnull align 8 dereferenceable(72) %0) #3 comdat align 2 personality ptr @__gxx_personality_v0 {
  %2 = alloca ptr, align 8
  store ptr %0, ptr %2, align 8, !tbaa !78
  %3 = load ptr, ptr %2, align 8
  %4 = getelementptr inbounds nuw %"class.absl::InlinedVector", ptr %3, i32 0, i32 0
  %5 = invoke noundef zeroext i1 @_ZNK4absl23inlined_vector_internal7StorageINS_19str_format_internal13FormatArgImplELm4ESaIS3_EE14GetIsAllocatedEv(ptr noundef nonnull align 8 dereferenceable(72) %4)
          to label %6 unwind label %17

6:                                                ; preds = %1
  br i1 %5, label %7, label %11

7:                                                ; preds = %6
  %8 = getelementptr inbounds nuw %"class.absl::InlinedVector", ptr %3, i32 0, i32 0
  %9 = invoke noundef ptr @_ZNK4absl23inlined_vector_internal7StorageINS_19str_format_internal13FormatArgImplELm4ESaIS3_EE16GetAllocatedDataEv(ptr noundef nonnull align 8 dereferenceable(72) %8)
          to label %10 unwind label %17

10:                                               ; preds = %7
  br label %15

11:                                               ; preds = %6
  %12 = getelementptr inbounds nuw %"class.absl::InlinedVector", ptr %3, i32 0, i32 0
  %13 = invoke noundef ptr @_ZNK4absl23inlined_vector_internal7StorageINS_19str_format_internal13FormatArgImplELm4ESaIS3_EE14GetInlinedDataEv(ptr noundef nonnull align 8 dereferenceable(72) %12)
          to label %14 unwind label %17

14:                                               ; preds = %11
  br label %15

15:                                               ; preds = %14, %10
  %16 = phi ptr [ %9, %10 ], [ %13, %14 ]
  ret ptr %16

17:                                               ; preds = %11, %7, %1
  %18 = landingpad { ptr, i32 }
          catch ptr null
  %19 = extractvalue { ptr, i32 } %18, 0
  call void @__clang_call_terminate(ptr %19) #18
  unreachable
}

; Function Attrs: noinline noreturn nounwind uwtable
define linkonce_odr hidden void @__clang_call_terminate(ptr noundef %0) #9 comdat {
  %2 = call ptr @__cxa_begin_catch(ptr %0) #17
  call void @_ZSt9terminatev() #18
  unreachable
}

; Function Attrs: mustprogress uwtable
define linkonce_odr dso_local noundef i64 @_ZNK4absl23inlined_vector_internal7StorageINS_19str_format_internal13FormatArgImplELm4ESaIS3_EE7GetSizeEv(ptr noundef nonnull align 8 dereferenceable(72) %0) #0 comdat align 2 {
  %2 = alloca ptr, align 8
  store ptr %0, ptr %2, align 8, !tbaa !134
  %3 = load ptr, ptr %2, align 8
  %4 = call noundef nonnull align 8 dereferenceable(8) ptr @_ZNK4absl23inlined_vector_internal7StorageINS_19str_format_internal13FormatArgImplELm4ESaIS3_EE21GetSizeAndIsAllocatedEv(ptr noundef nonnull align 8 dereferenceable(72) %3)
  %5 = load i64, ptr %4, align 8, !tbaa !14
  %6 = lshr i64 %5, 1
  ret i64 %6
}

; Function Attrs: mustprogress nounwind uwtable
define linkonce_odr dso_local noundef ptr @_ZN4absl13span_internal11GetDataImplIKNS_13InlinedVectorINS_19str_format_internal13FormatArgImplELm4ESaIS4_EEEEEDTcldtfp_4dataEERT_c(ptr noundef nonnull align 8 dereferenceable(72) %0, i8 noundef signext %1) #3 comdat {
  %3 = alloca ptr, align 8
  %4 = alloca i8, align 1
  store ptr %0, ptr %3, align 8, !tbaa !78
  store i8 %1, ptr %4, align 1, !tbaa !57
  %5 = load ptr, ptr %3, align 8, !tbaa !78
  %6 = call noundef ptr @_ZNK4absl13InlinedVectorINS_19str_format_internal13FormatArgImplELm4ESaIS2_EE4dataEv(ptr noundef nonnull align 8 dereferenceable(72) %5) #17
  ret ptr %6
}

; Function Attrs: inlinehint mustprogress nounwind uwtable
define linkonce_odr dso_local noundef i32 @_ZStorSt12_Ios_IostateS_(i32 noundef %0, i32 noundef %1) #7 comdat {
  %3 = alloca i32, align 4
  %4 = alloca i32, align 4
  store i32 %0, ptr %3, align 4, !tbaa !82
  store i32 %1, ptr %4, align 4, !tbaa !82
  %5 = load i32, ptr %3, align 4, !tbaa !82
  %6 = load i32, ptr %4, align 4, !tbaa !82
  %7 = or i32 %5, %6
  ret i32 %7
}

; Function Attrs: mustprogress nounwind uwtable
define available_externally noundef i32 @_ZNKSt9basic_iosIcSt11char_traitsIcEE7rdstateEv(ptr noundef nonnull align 8 dereferenceable(264) %0) #3 align 2 {
  %2 = alloca ptr, align 8
  store ptr %0, ptr %2, align 8, !tbaa !80
  %3 = load ptr, ptr %2, align 8
  %4 = getelementptr inbounds nuw %"class.std::ios_base", ptr %3, i32 0, i32 5
  %5 = load i32, ptr %4, align 8, !tbaa !146
  ret i32 %5
}

; Function Attrs: mustprogress nounwind uwtable
define linkonce_odr dso_local void @_ZN4absl4SpanIKNS_19str_format_internal13FormatArgImplEEC2EPS3_m(ptr noundef nonnull align 8 dereferenceable(16) %0, ptr noundef %1, i64 noundef %2) unnamed_addr #3 comdat align 2 {
  %4 = alloca ptr, align 8
  %5 = alloca ptr, align 8
  %6 = alloca i64, align 8
  store ptr %0, ptr %4, align 8, !tbaa !76
  store ptr %1, ptr %5, align 8, !tbaa !12
  store i64 %2, ptr %6, align 8, !tbaa !14
  %7 = load ptr, ptr %4, align 8
  %8 = getelementptr inbounds nuw %"class.absl::Span", ptr %7, i32 0, i32 0
  %9 = load ptr, ptr %5, align 8, !tbaa !12
  store ptr %9, ptr %8, align 8, !tbaa !105
  %10 = getelementptr inbounds nuw %"class.absl::Span", ptr %7, i32 0, i32 1
  %11 = load i64, ptr %6, align 8, !tbaa !14
  store i64 %11, ptr %10, align 8, !tbaa !103
  ret void
}

; Function Attrs: mustprogress nounwind uwtable
define linkonce_odr dso_local noundef i64 @_ZNK4absl13InlinedVectorINS_19str_format_internal13FormatArgImplELm4ESaIS2_EE4sizeEv(ptr noundef nonnull align 8 dereferenceable(72) %0) #3 comdat align 2 personality ptr @__gxx_personality_v0 {
  %2 = alloca ptr, align 8
  store ptr %0, ptr %2, align 8, !tbaa !78
  %3 = load ptr, ptr %2, align 8
  %4 = getelementptr inbounds nuw %"class.absl::InlinedVector", ptr %3, i32 0, i32 0
  %5 = invoke noundef i64 @_ZNK4absl23inlined_vector_internal7StorageINS_19str_format_internal13FormatArgImplELm4ESaIS3_EE7GetSizeEv(ptr noundef nonnull align 8 dereferenceable(72) %4)
          to label %6 unwind label %7

6:                                                ; preds = %1
  ret i64 %5

7:                                                ; preds = %1
  %8 = landingpad { ptr, i32 }
          catch ptr null
  %9 = extractvalue { ptr, i32 } %8, 0
  call void @__clang_call_terminate(ptr %9) #18
  unreachable
}

; Function Attrs: mustprogress nounwind uwtable
define linkonce_odr dso_local noundef ptr @_ZN4absl13span_internal7GetDataIKNS_13InlinedVectorINS_19str_format_internal13FormatArgImplELm4ESaIS4_EEEEEDTcl11GetDataImplfp_Li0EEERT_(ptr noundef nonnull align 8 dereferenceable(72) %0) #3 comdat {
  %2 = alloca ptr, align 8
  store ptr %0, ptr %2, align 8, !tbaa !78
  %3 = load ptr, ptr %2, align 8, !tbaa !78
  %4 = call noundef ptr @_ZN4absl13span_internal11GetDataImplIKNS_13InlinedVectorINS_19str_format_internal13FormatArgImplELm4ESaIS4_EEEEEDTcldtfp_4dataEERT_c(ptr noundef nonnull align 8 dereferenceable(72) %3, i8 noundef signext 0) #17
  ret ptr %4
}

; Function Attrs: mustprogress uwtable
define available_externally void @_ZNSt9basic_iosIcSt11char_traitsIcEE8setstateESt12_Ios_Iostate(ptr noundef nonnull align 8 dereferenceable(264) %0, i32 noundef %1) #0 align 2 {
  %3 = alloca ptr, align 8
  %4 = alloca i32, align 4
  store ptr %0, ptr %3, align 8, !tbaa !80
  store i32 %1, ptr %4, align 4, !tbaa !82
  %5 = load ptr, ptr %3, align 8
  %6 = call noundef i32 @_ZNKSt9basic_iosIcSt11char_traitsIcEE7rdstateEv(ptr noundef nonnull align 8 dereferenceable(264) %5)
  %7 = load i32, ptr %4, align 4, !tbaa !82
  %8 = call noundef i32 @_ZStorSt12_Ios_IostateS_(i32 noundef %6, i32 noundef %7)
  call void @_ZNSt9basic_iosIcSt11char_traitsIcEE5clearESt12_Ios_Iostate(ptr noundef nonnull align 8 dereferenceable(264) %5, i32 noundef %8)
  ret void
}

; Function Attrs: mustprogress nounwind uwtable
define linkonce_odr dso_local void @_ZN4absl4SpanIKNS_19str_format_internal13FormatArgImplEEC2INS_13InlinedVectorIS2_Lm4ESaIS2_EEEvS8_iEERKT_(ptr noundef nonnull align 8 dereferenceable(16) %0, ptr noundef nonnull align 8 dereferenceable(72) %1) unnamed_addr #3 comdat align 2 {
  %3 = alloca ptr, align 8
  %4 = alloca ptr, align 8
  store ptr %0, ptr %3, align 8, !tbaa !76
  store ptr %1, ptr %4, align 8, !tbaa !78
  %5 = load ptr, ptr %3, align 8
  %6 = load ptr, ptr %4, align 8, !tbaa !78
  %7 = call noundef ptr @_ZN4absl13span_internal7GetDataIKNS_13InlinedVectorINS_19str_format_internal13FormatArgImplELm4ESaIS4_EEEEEDTcl11GetDataImplfp_Li0EEERT_(ptr noundef nonnull align 8 dereferenceable(72) %6) #17
  %8 = load ptr, ptr %4, align 8, !tbaa !78
  %9 = call noundef i64 @_ZNK4absl13InlinedVectorINS_19str_format_internal13FormatArgImplELm4ESaIS2_EE4sizeEv(ptr noundef nonnull align 8 dereferenceable(72) %8) #17
  call void @_ZN4absl4SpanIKNS_19str_format_internal13FormatArgImplEEC2EPS3_m(ptr noundef nonnull align 8 dereferenceable(16) %5, ptr noundef %7, i64 noundef %9) #17
  ret void
}

; Function Attrs: mustprogress nounwind uwtable
define linkonce_odr dso_local void @_ZN4absl19str_format_internal17FormatRawSinkImplC2ISoTnPDTclsr19str_format_internalE11InvokeFlushclsr3stdE7declvalIPT_EEcvSt17basic_string_viewIcSt11char_traitsIcEE_EEELPv0EEES4_(ptr noundef nonnull align 8 dereferenceable(16) %0, ptr noundef %1) unnamed_addr #3 comdat align 2 {
  %3 = alloca ptr, align 8
  %4 = alloca ptr, align 8
  store ptr %0, ptr %3, align 8, !tbaa !37
  store ptr %1, ptr %4, align 8, !tbaa !64
  %5 = load ptr, ptr %3, align 8
  %6 = getelementptr inbounds nuw %"class.absl::str_format_internal::FormatRawSinkImpl", ptr %5, i32 0, i32 0
  %7 = load ptr, ptr %4, align 8, !tbaa !64
  store ptr %7, ptr %6, align 8, !tbaa !39
  %8 = getelementptr inbounds nuw %"class.absl::str_format_internal::FormatRawSinkImpl", ptr %5, i32 0, i32 1
  store ptr @_ZN4absl19str_format_internal17FormatRawSinkImpl5FlushISoEEvPvSt17basic_string_viewIcSt11char_traitsIcEE, ptr %8, align 8, !tbaa !41
  ret void
}

; Function Attrs: mustprogress uwtable
define dso_local noundef nonnull align 8 dereferenceable(8) ptr @_ZNK4absl19str_format_internal10Streamable5PrintERSo(ptr noundef nonnull align 8 dereferenceable(80) %0, ptr noundef nonnull align 8 dereferenceable(8) %1) #0 align 2 {
  %3 = alloca ptr, align 8
  %4 = alloca ptr, align 8
  %5 = alloca %"class.absl::str_format_internal::FormatRawSinkImpl", align 8
  %6 = alloca %"class.absl::str_format_internal::UntypedFormatSpecImpl", align 8
  %7 = alloca %"class.absl::Span", align 8
  store ptr %0, ptr %3, align 8, !tbaa !62
  store ptr %1, ptr %4, align 8, !tbaa !64
  %8 = load ptr, ptr %3, align 8
  %9 = load ptr, ptr %4, align 8, !tbaa !64
  call void @_ZN4absl19str_format_internal17FormatRawSinkImplC2ISoTnPDTclsr19str_format_internalE11InvokeFlushclsr3stdE7declvalIPT_EEcvSt17basic_string_viewIcSt11char_traitsIcEE_EEELPv0EEES4_(ptr noundef nonnull align 8 dereferenceable(16) %5, ptr noundef %9)
  %10 = getelementptr inbounds nuw %"class.absl::str_format_internal::Streamable", ptr %8, i32 0, i32 0
  %11 = load ptr, ptr %10, align 8, !tbaa !66
  call void @llvm.memcpy.p0.p0.i64(ptr align 8 %6, ptr align 8 %11, i64 16, i1 false), !tbaa.struct !33
  %12 = getelementptr inbounds nuw %"class.absl::str_format_internal::Streamable", ptr %8, i32 0, i32 1
  call void @_ZN4absl4SpanIKNS_19str_format_internal13FormatArgImplEEC2INS_13InlinedVectorIS2_Lm4ESaIS2_EEEvS8_iEERKT_(ptr noundef nonnull align 8 dereferenceable(16) %7, ptr noundef nonnull align 8 dereferenceable(72) %12) #17
  %13 = getelementptr inbounds nuw { ptr, ptr }, ptr %5, i32 0, i32 0
  %14 = load ptr, ptr %13, align 8
  %15 = getelementptr inbounds nuw { ptr, ptr }, ptr %5, i32 0, i32 1
  %16 = load ptr, ptr %15, align 8
  %17 = getelementptr inbounds nuw { ptr, i64 }, ptr %6, i32 0, i32 0
  %18 = load ptr, ptr %17, align 8
  %19 = getelementptr inbounds nuw { ptr, i64 }, ptr %6, i32 0, i32 1
  %20 = load i64, ptr %19, align 8
  %21 = getelementptr inbounds nuw { ptr, i64 }, ptr %7, i32 0, i32 0
  %22 = load ptr, ptr %21, align 8
  %23 = getelementptr inbounds nuw { ptr, i64 }, ptr %7, i32 0, i32 1
  %24 = load i64, ptr %23, align 8
  %25 = call noundef zeroext i1 @_ZN4absl19str_format_internal13FormatUntypedENS0_17FormatRawSinkImplENS0_21UntypedFormatSpecImplENS_4SpanIKNS0_13FormatArgImplEEE(ptr %14, ptr %16, ptr %18, i64 %20, ptr %22, i64 %24)
  br i1 %25, label %32, label %26

26:                                               ; preds = %2
  %27 = load ptr, ptr %4, align 8, !tbaa !64
  %28 = load ptr, ptr %27, align 8, !tbaa !74
  %29 = getelementptr i8, ptr %28, i64 -24
  %30 = load i64, ptr %29, align 8
  %31 = getelementptr inbounds i8, ptr %27, i64 %30
  call void @_ZNSt9basic_iosIcSt11char_traitsIcEE8setstateESt12_Ios_Iostate(ptr noundef nonnull align 8 dereferenceable(264) %31, i32 noundef 4)
  br label %32

32:                                               ; preds = %26, %2
  %33 = load ptr, ptr %4, align 8, !tbaa !64
  ret ptr %33
}