; Function Attrs: mustprogress uwtable
define dso_local noundef nonnull align 8 dereferenceable(8) ptr @_ZNK4absl19str_format_internal10Streamable5PrintERSo(ptr noundef nonnull align 8 dereferenceable(80) %0, ptr noundef nonnull returned align 8 dereferenceable(8) %1) local_unnamed_addr #0 align 2 personality ptr @__gxx_personality_v0 {
  %3 = load ptr, ptr %0, align 8, !tbaa !74
  %.sroa.0.0.copyload = load ptr, ptr %3, align 8, !tbaa !17
  %.sroa.2.0..sroa_idx = getelementptr inbounds nuw i8, ptr %3, i64 8
  %.sroa.2.0.copyload = load i64, ptr %.sroa.2.0..sroa_idx, align 8, !tbaa !82
  %4 = getelementptr inbounds nuw i8, ptr %0, i64 8
  %5 = load i64, ptr %4, align 8, !tbaa !82
  %6 = and i64 %5, 1
  %.not.i.i.i.i = icmp eq i64 %6, 0
  %7 = getelementptr inbounds nuw i8, ptr %0, i64 16
  %8 = load ptr, ptr %7, align 8
  %9 = select i1 %.not.i.i.i.i, ptr %7, ptr %8
  %10 = lshr i64 %5, 1
  %11 = tail call noundef zeroext i1 @_ZN4absl19str_format_internal13FormatUntypedENS0_17FormatRawSinkImplENS0_21UntypedFormatSpecImplENS_4SpanIKNS0_13FormatArgImplEEE(ptr nonnull %1, ptr nonnull @_ZN4absl19str_format_internal17FormatRawSinkImpl5FlushISoEEvPvSt17basic_string_viewIcSt11char_traitsIcEE, ptr %.sroa.0.0.copyload, i64 %.sroa.2.0.copyload, ptr %9, i64 %10)
  br i1 %11, label %20, label %12

12:                                               ; preds = %2
  %13 = load ptr, ptr %1, align 8, !tbaa !83
  %14 = getelementptr i8, ptr %13, i64 -24
  %15 = load i64, ptr %14, align 8
  %16 = getelementptr inbounds i8, ptr %1, i64 %15
  %17 = getelementptr inbounds nuw i8, ptr %16, i64 32
  %18 = load i32, ptr %17, align 8, !tbaa !85
  %19 = or i32 %18, 4
  tail call void @_ZNSt9basic_iosIcSt11char_traitsIcEE5clearESt12_Ios_Iostate(ptr noundef nonnull align 8 dereferenceable(264) %16, i32 noundef %19)
  br label %20

20:                                               ; preds = %12, %2
  ret ptr %1
}